target datalayout = "e-m:e-p270:32:32-p271:32:32-p272:64:64-i64:64-i128:128-f80:128-n8:16:32:64-S128"
target triple = "x86_64-pc-linux-gnu"

%struct._zval_struct = type { %union._zend_value, %union.anon, %union.anon.2 }
%union._zend_value = type { i64 }
%union.anon = type { i32 }
%union.anon.2 = type { i32 }
%struct._zend_array = type { %struct._zend_refcounted_h, %union.anon.4, i32, %union.anon.6, i32, i32, i32, i32, i64, ptr }
%struct._zend_refcounted_h = type { i32, %union.anon.3 }
%union.anon.3 = type { i32 }
%union.anon.4 = type { i32 }
%union.anon.6 = type { ptr }
%struct.php_sxe_object = type { ptr, ptr, ptr, ptr, %struct.anon.8, %struct._zval_struct, ptr, %struct._zend_object }
%struct.anon.8 = type { ptr, ptr, i32, i32, %struct._zval_struct }
%struct._zend_object = type { %struct._zend_refcounted_h, i32, ptr, ptr, ptr, [1 x %struct._zval_struct] }
%struct._zend_class_entry = type { i8, ptr, %union.anon.9, i32, i32, i32, i32, ptr, ptr, ptr, %struct._zend_array, %struct._zend_array, %struct._zend_array, ptr, ptr, ptr, ptr, ptr, ptr, ptr, ptr, ptr, ptr, ptr, ptr, ptr, ptr, ptr, ptr, ptr, ptr, ptr, %union.anon.10, ptr, ptr, ptr, ptr, i32, i32, %union.anon.11, ptr, ptr, ptr, ptr, i32, ptr, ptr, %union.anon.12 }
%union.anon.9 = type { ptr }
%union.anon.10 = type { ptr }
%union.anon.11 = type { ptr }
%union.anon.12 = type { %struct.anon.13 }
%struct.anon.13 = type { ptr, i32, i32 }
%struct.anon.7 = type { i8, [3 x i8], i32, ptr, ptr, ptr, i32, i32, ptr, ptr, ptr, ptr, i32 }

@ce_SimpleXMLElement = dso_local global ptr null, align 8
@zend_known_strings = external global ptr, align 8

; Function Attrs: nounwind uwtable
define internal ptr @php_sxe_object_new(ptr noundef %0, ptr noundef %1) #0 {
  %3 = alloca ptr, align 8
  %4 = alloca i64, align 8
  %5 = alloca ptr, align 8
  %6 = alloca ptr, align 8
  %7 = alloca ptr, align 8
  %8 = alloca ptr, align 8
  %9 = alloca ptr, align 8
  store ptr %0, ptr %7, align 8
  store ptr %1, ptr %8, align 8
  %10 = load ptr, ptr %7, align 8
  store i64 152, ptr %4, align 8
  store ptr %10, ptr %5, align 8
  %11 = load i64, ptr %4, align 8
  %12 = load ptr, ptr %5, align 8
  store ptr %12, ptr %3, align 8
  %13 = load ptr, ptr %3, align 8
  %14 = getelementptr inbounds %struct._zend_class_entry, ptr %13, i32 0, i32 5
  %15 = load i32, ptr %14, align 8
  %16 = load ptr, ptr %3, align 8
  %17 = getelementptr inbounds %struct._zend_class_entry, ptr %16, i32 0, i32 4
  %18 = load i32, ptr %17, align 4
  %19 = and i32 %18, 2048
  %20 = icmp ne i32 %19, 0
  %21 = select i1 %20, i32 0, i32 1
  %22 = sub nsw i32 %15, %21
  %23 = sext i32 %22 to i64
  %24 = mul i64 16, %23
  %25 = add i64 %11, %24
  %26 = call noalias ptr @_emalloc(i64 noundef %25) #10
  store ptr %26, ptr %6, align 8
  %27 = load ptr, ptr %6, align 8
  %28 = load i64, ptr %4, align 8
  %29 = sub i64 %28, 56
  call void @llvm.memset.p0.i64(ptr align 1 %27, i8 0, i64 %29, i1 false)
  %30 = load ptr, ptr %6, align 8
  store ptr %30, ptr %9, align 8
  %31 = load ptr, ptr %9, align 8
  %32 = getelementptr inbounds %struct.php_sxe_object, ptr %31, i32 0, i32 4
  %33 = getelementptr inbounds %struct.anon.8, ptr %32, i32 0, i32 3
  store i32 0, ptr %33, align 4
  %34 = load ptr, ptr %9, align 8
  %35 = getelementptr inbounds %struct.php_sxe_object, ptr %34, i32 0, i32 4
  %36 = getelementptr inbounds %struct.anon.8, ptr %35, i32 0, i32 1
  store ptr null, ptr %36, align 8
  %37 = load ptr, ptr %9, align 8
  %38 = getelementptr inbounds %struct.php_sxe_object, ptr %37, i32 0, i32 4
  %39 = getelementptr inbounds %struct.anon.8, ptr %38, i32 0, i32 0
  store ptr null, ptr %39, align 8
  %40 = load ptr, ptr %8, align 8
  %41 = load ptr, ptr %9, align 8
  %42 = getelementptr inbounds %struct.php_sxe_object, ptr %41, i32 0, i32 6
  store ptr %40, ptr %42, align 8
  %43 = load ptr, ptr %9, align 8
  %44 = getelementptr inbounds %struct.php_sxe_object, ptr %43, i32 0, i32 7
  %45 = load ptr, ptr %7, align 8
  call void @zend_object_std_init(ptr noundef %44, ptr noundef %45)
  %46 = load ptr, ptr %9, align 8
  %47 = getelementptr inbounds %struct.php_sxe_object, ptr %46, i32 0, i32 7
  %48 = load ptr, ptr %7, align 8
  call void @object_properties_init(ptr noundef %47, ptr noundef %48)
  %49 = load ptr, ptr %9, align 8
  ret ptr %49
}

; Function Attrs: nounwind uwtable
define internal ptr @php_sxe_find_fptr_count(ptr noundef %0) #0 {
  %2 = alloca ptr, align 8
  %3 = alloca ptr, align 8
  %4 = alloca ptr, align 8
  %5 = alloca ptr, align 8
  %6 = alloca ptr, align 8
  %7 = alloca ptr, align 8
  %8 = alloca ptr, align 8
  %9 = alloca i32, align 4
  store ptr %0, ptr %6, align 8
  store ptr null, ptr %7, align 8
  %10 = load ptr, ptr %6, align 8
  store ptr %10, ptr %8, align 8
  store i32 0, ptr %9, align 4
  br label %11

11:                                               ; preds = %19, %1
  %12 = load ptr, ptr %8, align 8
  %13 = icmp ne ptr %12, null
  br i1 %13, label %14, label %23

14:                                               ; preds = %11
  %15 = load ptr, ptr %8, align 8
  %16 = load ptr, ptr @ce_SimpleXMLElement, align 8
  %17 = icmp eq ptr %15, %16
  br i1 %17, label %18, label %19

18:                                               ; preds = %14
  br label %23

19:                                               ; preds = %14
  %20 = load ptr, ptr %8, align 8
  %21 = getelementptr inbounds %struct._zend_class_entry, ptr %20, i32 0, i32 2
  %22 = load ptr, ptr %21, align 8
  store ptr %22, ptr %8, align 8
  store i32 1, ptr %9, align 4
  br label %11

23:                                               ; preds = %18, %11
  %24 = load i32, ptr %9, align 4
  %25 = icmp ne i32 %24, 0
  br i1 %25, label %26, label %53

26:                                               ; preds = %23
  %27 = load ptr, ptr %6, align 8
  %28 = getelementptr inbounds %struct._zend_class_entry, ptr %27, i32 0, i32 10
  %29 = load ptr, ptr @zend_known_strings, align 8
  %30 = getelementptr inbounds ptr, ptr %29, i64 69
  %31 = load ptr, ptr %30, align 8
  store ptr %28, ptr %3, align 8
  store ptr %31, ptr %4, align 8
  %32 = load ptr, ptr %3, align 8
  %33 = load ptr, ptr %4, align 8
  %34 = call ptr @zend_hash_find(ptr noundef %32, ptr noundef %33) #9
  store ptr %34, ptr %5, align 8
  %35 = load ptr, ptr %5, align 8
  %36 = icmp ne ptr %35, null
  br i1 %36, label %37, label %43

37:                                               ; preds = %26
  %38 = load ptr, ptr %5, align 8
  %39 = load ptr, ptr %38, align 8
  %40 = icmp ne ptr %39, null
  call void @llvm.assume(i1 %40)
  %41 = load ptr, ptr %5, align 8
  %42 = load ptr, ptr %41, align 8
  store ptr %42, ptr %2, align 8
  br label %44

43:                                               ; preds = %26
  store ptr null, ptr %2, align 8
  br label %44

44:                                               ; preds = %43, %37
  %45 = load ptr, ptr %2, align 8
  store ptr %45, ptr %7, align 8
  %46 = load ptr, ptr %7, align 8
  %47 = getelementptr inbounds %struct.anon.7, ptr %46, i32 0, i32 4
  %48 = load ptr, ptr %47, align 8
  %49 = load ptr, ptr %8, align 8
  %50 = icmp eq ptr %48, %49
  br i1 %50, label %51, label %52

51:                                               ; preds = %44
  store ptr null, ptr %7, align 8
  br label %52

52:                                               ; preds = %51, %44
  br label %53

53:                                               ; preds = %52, %23
  %54 = load ptr, ptr %7, align 8
  ret ptr %54
}

; Function Attrs: nounwind uwtable
define dso_local ptr @sxe_object_new(ptr noundef %0) #0 {
  %2 = alloca ptr, align 8
  %3 = alloca ptr, align 8
  store ptr %0, ptr %2, align 8
  %4 = load ptr, ptr %2, align 8
  %5 = load ptr, ptr %2, align 8
  %6 = call ptr @php_sxe_find_fptr_count(ptr noundef %5)
  %7 = call ptr @php_sxe_object_new(ptr noundef %4, ptr noundef %6)
  store ptr %7, ptr %3, align 8
  %8 = load ptr, ptr %3, align 8
  %9 = getelementptr inbounds %struct.php_sxe_object, ptr %8, i32 0, i32 7
  ret ptr %9
}