; Function Attrs: nounwind uwtable
define dso_local noundef nonnull ptr @sxe_object_new(ptr noundef %0) #1 {
  %2 = load ptr, ptr @ce_SimpleXMLElement, align 8
  %.not21.i = icmp eq ptr %0, null
  %3 = icmp eq ptr %2, %0
  %or.cond22.i = select i1 %.not21.i, i1 true, i1 %3
  br i1 %or.cond22.i, label %php_sxe_find_fptr_count.exit, label %.lr.ph.i

.lr.ph.i:                                         ; preds = %1, %.lr.ph.i
  %.01423.i = phi ptr [ %5, %.lr.ph.i ], [ %0, %1 ]
  %4 = getelementptr inbounds i8, ptr %.01423.i, i64 16
  %5 = load ptr, ptr %4, align 8
  %.not.i = icmp eq ptr %5, null
  %6 = icmp eq ptr %5, %2
  %or.cond.i = select i1 %.not.i, i1 true, i1 %6
  br i1 %or.cond.i, label %._crit_edge.i, label %.lr.ph.i

._crit_edge.i:                                    ; preds = %.lr.ph.i
  %7 = getelementptr inbounds i8, ptr %0, i64 64
  %8 = load ptr, ptr @zend_known_strings, align 8
  %9 = getelementptr inbounds i8, ptr %8, i64 552
  %10 = load ptr, ptr %9, align 8
  %11 = tail call ptr @zend_hash_find(ptr noundef nonnull %7, ptr noundef %10) #14
  %.not19.i = icmp ne ptr %11, null
  tail call void @llvm.assume(i1 %.not19.i)
  %12 = load ptr, ptr %11, align 8, !nonnull !6, !noundef !6
  %13 = getelementptr inbounds i8, ptr %12, i64 16
  %14 = load ptr, ptr %13, align 8
  %15 = icmp eq ptr %14, %5
  %spec.store.select.i = select i1 %15, ptr null, ptr %12
  br label %php_sxe_find_fptr_count.exit

php_sxe_find_fptr_count.exit:                     ; preds = %1, %._crit_edge.i
  %.015.i = phi ptr [ %spec.store.select.i, %._crit_edge.i ], [ null, %1 ]
  %16 = getelementptr inbounds i8, ptr %0, i64 32
  %17 = load i32, ptr %16, align 8
  %18 = getelementptr inbounds i8, ptr %0, i64 28
  %19 = load i32, ptr %18, align 4
  %20 = lshr i32 %19, 11
  %.lobit.i = and i32 %20, 1
  %21 = xor i32 %.lobit.i, 1
  %22 = sub nsw i32 %17, %21
  %23 = sext i32 %22 to i64
  %24 = shl nsw i64 %23, 4
  %25 = add nsw i64 %24, 152
  %26 = tail call noalias ptr @_emalloc(i64 noundef %25) #15
  %27 = getelementptr inbounds i8, ptr %26, i64 88
  tail call void @llvm.memset.p0.i64(ptr noundef nonnull align 1 dereferenceable(88) %26, i8 0, i64 88, i1 false)
  store ptr %.015.i, ptr %27, align 8
  %28 = getelementptr inbounds i8, ptr %26, i64 96
  tail call void @zend_object_std_init(ptr noundef nonnull %28, ptr noundef %0) #14
  tail call void @object_properties_init(ptr noundef nonnull %28, ptr noundef %0) #14
  ret ptr %28
}